target datalayout = "e-m:e-p270:32:32-p271:32:32-p272:64:64-i64:64-i128:128-f80:128-n8:16:32:64-S128"
target triple = "x86_64-pc-linux-gnu"

%struct.tcg_region_state = type { %struct.QemuMutex, ptr, ptr, i64, i64, i64, i64, i64, i64 }
%struct.QemuMutex = type { %union.pthread_mutex_t, i8 }
%union.pthread_mutex_t = type { %struct.__pthread_mutex_s }
%struct.__pthread_mutex_s = type { i32, i32, i32, i32, i32, i16, i16, %struct.__pthread_internal_list }
%struct.__pthread_internal_list = type { ptr, ptr }

@region = internal global %struct.tcg_region_state zeroinitializer, align 8

; Function Attrs: nounwind sspstrong uwtable
define dso_local zeroext i1 @in_code_gen_buffer(ptr noundef %0) #0 {
  %2 = alloca ptr, align 8
  store ptr %0, ptr %2, align 8
  %3 = load ptr, ptr %2, align 8
  %4 = load ptr, ptr getelementptr inbounds nuw (%struct.tcg_region_state, ptr @region, i32 0, i32 1), align 8
  %5 = ptrtoint ptr %3 to i64
  %6 = ptrtoint ptr %4 to i64
  %7 = sub i64 %5, %6
  %8 = load i64, ptr getelementptr inbounds nuw (%struct.tcg_region_state, ptr @region, i32 0, i32 6), align 8
  %9 = icmp ule i64 %7, %8
  ret i1 %9
}