; Function Attrs: mustprogress nofree norecurse nosync nounwind sspstrong willreturn memory(read, argmem: none, inaccessiblemem: none) uwtable
define dso_local zeroext i1 @in_code_gen_buffer(ptr noundef %0) local_unnamed_addr #0 {
  %2 = load ptr, ptr getelementptr inbounds nuw (i8, ptr @region, i64 48), align 8
  %3 = ptrtoint ptr %0 to i64
  %4 = ptrtoint ptr %2 to i64
  %5 = sub i64 %3, %4
  %6 = load i64, ptr getelementptr inbounds nuw (i8, ptr @region, i64 88), align 8
  %7 = icmp ule i64 %5, %6
  ret i1 %7
}